; Function Attrs: nounwind uwtable
define dso_local ptr @absolute_path(ptr noundef %0) local_unnamed_addr #3 {
  store i64 0, ptr getelementptr inbounds nuw (i8, ptr @absolute_path.sb, i64 8), align 8, !tbaa !12
  %2 = load ptr, ptr getelementptr inbounds nuw (i8, ptr @absolute_path.sb, i64 16), align 8, !tbaa !7
  %.not9.i = icmp eq ptr %2, @strbuf_slopbuf
  br i1 %.not9.i, label %strbuf_setlen.exit, label %3

3:                                                ; preds = %1
  store i8 0, ptr %2, align 1, !tbaa !4
  br label %strbuf_setlen.exit

strbuf_setlen.exit:                               ; preds = %1, %3
  tail call void @strbuf_add_absolute_path(ptr noundef nonnull @absolute_path.sb, ptr noundef %0)
  %4 = load ptr, ptr getelementptr inbounds nuw (i8, ptr @absolute_path.sb, i64 16), align 8, !tbaa !7
  ret ptr %4
}